; Function Attrs: nounwind uwtable
define internal fastcc void @_edit_preset(ptr noundef %0, ptr noundef %1) unnamed_addr #0 {
  %3 = alloca i32, align 4
  %4 = icmp eq ptr %0, null
  br i1 %4, label %5, label %13

5:                                                ; preds = %2
  call void @llvm.lifetime.start.p0(i64 4, ptr nonnull %3) #16
  store i32 0, ptr %3, align 4, !tbaa !117
  %6 = call ptr @dt_get_active_preset_name(ptr noundef %1, ptr noundef nonnull %3) #16
  %7 = icmp eq ptr %6, null
  br i1 %7, label %.critedge, label %8

8:                                                ; preds = %5
  %9 = load i32, ptr %3, align 4, !tbaa !117
  %.not = icmp eq i32 %9, 0
  br i1 %.not, label %12, label %10

10:                                               ; preds = %8
  %11 = call ptr @dcgettext(ptr noundef null, ptr noundef nonnull @.str.178, i32 noundef 5) #16
  call void (ptr, ...) @dt_control_log(ptr noundef %11, ptr noundef nonnull %6) #16
  call void @g_free(ptr noundef nonnull %6) #16
  br label %.critedge

12:                                               ; preds = %8
  call void @llvm.lifetime.end.p0(i64 4, ptr nonnull %3) #16
  br label %15

13:                                               ; preds = %2
  %14 = tail call noalias ptr @g_strdup(ptr noundef nonnull %0) #16
  br label %15

15:                                               ; preds = %12, %13
  %.09 = phi ptr [ %6, %12 ], [ %14, %13 ]
  %16 = load ptr, ptr getelementptr inbounds nuw (i8, ptr @darktable, i64 104), align 8, !tbaa !95
  %17 = load ptr, ptr %16, align 8, !tbaa !162
  %18 = call ptr @dt_ui_main_window(ptr noundef %17) #16
  %19 = tail call i64 @gtk_window_get_type() #20
  %20 = call ptr @g_type_check_instance_cast(ptr noundef %18, i64 noundef %19) #16
  %21 = call noalias dereferenceable_or_null(264) ptr @g_malloc0(i64 noundef 264) #19
  %22 = getelementptr inbounds nuw i8, ptr %21, i64 200
  store i32 -1, ptr %22, align 8, !tbaa !62
  %23 = call noalias ptr @g_strdup(ptr noundef %.09) #16
  %24 = getelementptr inbounds nuw i8, ptr %21, i64 192
  store ptr %23, ptr %24, align 8, !tbaa !69
  %25 = getelementptr inbounds nuw i8, ptr %21, i64 8
  store ptr %1, ptr %25, align 8, !tbaa !70
  %26 = getelementptr inbounds nuw i8, ptr %1, i64 456
  %27 = call noalias ptr @g_strdup(ptr noundef nonnull %26) #16
  %28 = getelementptr inbounds nuw i8, ptr %21, i64 24
  store ptr %27, ptr %28, align 8, !tbaa !71
  %29 = getelementptr inbounds nuw i8, ptr %1, i64 8
  %30 = load ptr, ptr %29, align 8, !tbaa !72
  %31 = call i32 (...) %30() #16
  %32 = getelementptr inbounds nuw i8, ptr %21, i64 32
  store i32 %31, ptr %32, align 8, !tbaa !83
  %33 = call noalias ptr @g_strdup(ptr noundef nonnull %26) #16
  %34 = getelementptr inbounds nuw i8, ptr %21, i64 16
  store ptr %33, ptr %34, align 8, !tbaa !84
  %35 = getelementptr inbounds nuw i8, ptr %21, i64 248
  store ptr @_edit_preset_final_callback, ptr %35, align 8, !tbaa !85
  %36 = getelementptr inbounds nuw i8, ptr %21, i64 256
  store ptr null, ptr %36, align 8, !tbaa !86
  store ptr %20, ptr %21, align 8, !tbaa !87
  call fastcc void @_presets_show_edit_dialog(ptr noundef nonnull %21, i32 noundef 1, i32 noundef 1, i32 noundef 0)
  call void @g_free(ptr noundef %.09) #16
  br label %37

.critedge:                                        ; preds = %5, %10
  call void @llvm.lifetime.end.p0(i64 4, ptr nonnull %3) #16
  br label %37

37:                                               ; preds = %.critedge, %15
  ret void
}